; Function Attrs: mustprogress nofree norecurse nosync nounwind willreturn memory(write, argmem: readwrite, inaccessiblemem: none) uwtable
define noundef nonnull align 8 dereferenceable(8) ptr @_ZN3gmx15MdrunnerBuilder12addFilenamesENS_8ArrayRefIK8t_filenmEE(ptr noundef nonnull readonly returned align 8 dereferenceable(8) %0, ptr %1, ptr %2) local_unnamed_addr #27 align 2 {
  %4 = load ptr, ptr %0, align 8, !tbaa !1246
  %5 = ptrtoint ptr %2 to i64
  %6 = ptrtoint ptr %1 to i64
  %7 = sub i64 %5, %6
  %8 = getelementptr inbounds nuw i8, ptr %1, i64 %7
  %9 = getelementptr inbounds nuw i8, ptr %4, i64 328
  store ptr %1, ptr %9, align 8
  %.sroa.2.0..sroa_idx.i = getelementptr inbounds nuw i8, ptr %4, i64 336
  store ptr %8, ptr %.sroa.2.0..sroa_idx.i, align 8
  ret ptr %0
}